target datalayout = "e-m:e-p270:32:32-p271:32:32-p272:64:64-i64:64-i128:128-f80:128-n8:16:32:64-S128"
target triple = "x86_64-unknown-linux-gnu"

%"class.grpc_core::ChannelCompression" = type <{ %"class.std::optional", i64, i32, %"class.grpc_core::CompressionAlgorithmSet", i8, i8, i8 }>
%"class.std::optional" = type { %"struct.std::_Optional_base" }
%"struct.std::_Optional_base" = type { %"struct.std::_Optional_payload" }
%"struct.std::_Optional_payload" = type { %"struct.std::_Optional_payload_base.base", [3 x i8] }
%"struct.std::_Optional_payload_base.base" = type <{ %"union.std::_Optional_payload_base<unsigned int>::_Storage", i8 }>
%"union.std::_Optional_payload_base<unsigned int>::_Storage" = type { i32 }
%"class.grpc_core::CompressionAlgorithmSet" = type { %"class.grpc_core::BitSet" }
%"class.grpc_core::BitSet" = type { [1 x i8] }
%"class.std::optional.10" = type { %"struct.std::_Optional_base.11" }
%"struct.std::_Optional_base.11" = type { %"struct.std::_Optional_payload.13" }
%"struct.std::_Optional_payload.13" = type { %"struct.std::_Optional_payload_base.base.15", [3 x i8] }
%"struct.std::_Optional_payload_base.base.15" = type <{ %"union.std::_Optional_payload_base<grpc_compression_algorithm>::_Storage", i8 }>
%"union.std::_Optional_payload_base<grpc_compression_algorithm>::_Storage" = type { i32 }
%"class.std::optional.18" = type { %"struct.std::_Optional_base.19" }
%"struct.std::_Optional_base.19" = type { %"struct.std::_Optional_payload.21" }
%"struct.std::_Optional_payload.21" = type { %"struct.std::_Optional_payload_base.22" }
%"struct.std::_Optional_payload_base.22" = type { %"union.std::_Optional_payload_base<bool>::_Storage", i8 }
%"union.std::_Optional_payload_base<bool>::_Storage" = type { %"struct.std::_Optional_payload_base<bool>::_Empty_byte" }
%"struct.std::_Optional_payload_base<bool>::_Empty_byte" = type { i8 }
%"class.std::basic_string_view" = type { i64, ptr }
%"struct.std::_Optional_payload_base.14" = type <{ %"union.std::_Optional_payload_base<grpc_compression_algorithm>::_Storage", i8, [3 x i8] }>

@.str.3 = private unnamed_addr constant [29 x i8] c"grpc.per_message_compression\00", align 1
@.str.4 = private unnamed_addr constant [31 x i8] c"grpc.per_message_decompression\00", align 1
@.str.5 = private unnamed_addr constant [10 x i8] c"<unknown>\00", align 1
@.str.6 = private unnamed_addr constant [152 x i8] c"generated/home/dtcxzyw/WorkSpace/Projects/compilers/llvm-opt-benchmark/bench/grpc/grpc/src/core/ext/filters/http/message_compress/compression_filter.cc\00", align 1
@.str.7 = private unnamed_addr constant [64 x i8] c"default compression algorithm %s not enabled: switching to none\00", align 1

; Function Attrs: mustprogress nounwind uwtable
define linkonce_odr noundef nonnull align 1 dereferenceable(1) ptr @_ZNSt22_Optional_payload_baseIbE6_M_getEv(ptr noundef nonnull align 1 dereferenceable(2) %this) #4 comdat align 2 {
entry:
  %this.addr = alloca ptr, align 8
  store ptr %this, ptr %this.addr, align 8
  %this1 = load ptr, ptr %this.addr, align 8
  %_M_payload = getelementptr inbounds %"struct.std::_Optional_payload_base.22", ptr %this1, i32 0, i32 0
  ret ptr %_M_payload
}

; Function Attrs: mustprogress nounwind uwtable
define linkonce_odr noundef nonnull align 4 dereferenceable(4) ptr @_ZNSt22_Optional_payload_baseI26grpc_compression_algorithmE6_M_getEv(ptr noundef nonnull align 4 dereferenceable(5) %this) #4 comdat align 2 {
entry:
  %this.addr = alloca ptr, align 8
  store ptr %this, ptr %this.addr, align 8
  %this1 = load ptr, ptr %this.addr, align 8
  %_M_payload = getelementptr inbounds %"struct.std::_Optional_payload_base.14", ptr %this1, i32 0, i32 0
  ret ptr %_M_payload
}

; Function Attrs: mustprogress nounwind uwtable
define linkonce_odr noundef nonnull align 1 dereferenceable(1) ptr @_ZNSt19_Optional_base_implIbSt14_Optional_baseIbLb1ELb1EEE6_M_getEv(ptr noundef nonnull align 1 dereferenceable(1) %this) #4 comdat align 2 {
entry:
  %this.addr = alloca ptr, align 8
  store ptr %this, ptr %this.addr, align 8
  %this1 = load ptr, ptr %this.addr, align 8
  br label %do.body

do.body:                                          ; preds = %entry
  br label %do.cond

do.cond:                                          ; preds = %do.body
  br label %do.end

do.end:                                           ; preds = %do.cond
  %_M_payload = getelementptr inbounds %"struct.std::_Optional_base.19", ptr %this1, i32 0, i32 0
  %call = call noundef nonnull align 1 dereferenceable(1) ptr @_ZNSt22_Optional_payload_baseIbE6_M_getEv(ptr noundef nonnull align 1 dereferenceable(2) %_M_payload) #3
  ret ptr %call
}

; Function Attrs: mustprogress nounwind uwtable
define linkonce_odr noundef zeroext i1 @_ZNKSt19_Optional_base_implIbSt14_Optional_baseIbLb1ELb1EEE13_M_is_engagedEv(ptr noundef nonnull align 1 dereferenceable(1) %this) #4 comdat align 2 {
entry:
  %this.addr = alloca ptr, align 8
  store ptr %this, ptr %this.addr, align 8
  %this1 = load ptr, ptr %this.addr, align 8
  %_M_payload = getelementptr inbounds %"struct.std::_Optional_base.19", ptr %this1, i32 0, i32 0
  %_M_engaged = getelementptr inbounds %"struct.std::_Optional_payload_base.22", ptr %_M_payload, i32 0, i32 1
  %0 = load i8, ptr %_M_engaged, align 1
  %tobool = trunc i8 %0 to i1
  ret i1 %tobool
}

; Function Attrs: noreturn nounwind uwtable
define linkonce_odr hidden void @__clang_call_terminate(ptr noundef %0) #8 comdat {
  %2 = call ptr @__cxa_begin_catch(ptr %0) #3
  call void @_ZSt9terminatev() #15
  unreachable
}

; Function Attrs: mustprogress nounwind uwtable
define linkonce_odr noundef i64 @_ZNSt11char_traitsIcE6lengthEPKc(ptr noundef %__s) #4 comdat align 2 {
entry:
  %__s.addr = alloca ptr, align 8
  store ptr %__s, ptr %__s.addr, align 8
  %0 = load ptr, ptr %__s.addr, align 8
  %call = call i64 @strlen(ptr noundef %0) #3
  ret i64 %call
}

; Function Attrs: mustprogress nounwind uwtable
define linkonce_odr noundef nonnull align 4 dereferenceable(4) ptr @_ZNSt19_Optional_base_implI26grpc_compression_algorithmSt14_Optional_baseIS0_Lb1ELb1EEE6_M_getEv(ptr noundef nonnull align 1 dereferenceable(1) %this) #4 comdat align 2 {
entry:
  %this.addr = alloca ptr, align 8
  store ptr %this, ptr %this.addr, align 8
  %this1 = load ptr, ptr %this.addr, align 8
  br label %do.body

do.body:                                          ; preds = %entry
  br label %do.cond

do.cond:                                          ; preds = %do.body
  br label %do.end

do.end:                                           ; preds = %do.cond
  %_M_payload = getelementptr inbounds %"struct.std::_Optional_base.11", ptr %this1, i32 0, i32 0
  %call = call noundef nonnull align 4 dereferenceable(4) ptr @_ZNSt22_Optional_payload_baseI26grpc_compression_algorithmE6_M_getEv(ptr noundef nonnull align 4 dereferenceable(5) %_M_payload) #3
  ret ptr %call
}

; Function Attrs: mustprogress nounwind uwtable
define linkonce_odr noundef zeroext i1 @_ZNKSt19_Optional_base_implI26grpc_compression_algorithmSt14_Optional_baseIS0_Lb1ELb1EEE13_M_is_engagedEv(ptr noundef nonnull align 1 dereferenceable(1) %this) #4 comdat align 2 {
entry:
  %this.addr = alloca ptr, align 8
  store ptr %this, ptr %this.addr, align 8
  %this1 = load ptr, ptr %this.addr, align 8
  %_M_payload = getelementptr inbounds %"struct.std::_Optional_base.11", ptr %this1, i32 0, i32 0
  %_M_engaged = getelementptr inbounds %"struct.std::_Optional_payload_base.14", ptr %_M_payload, i32 0, i32 1
  %0 = load i8, ptr %_M_engaged, align 4
  %tobool = trunc i8 %0 to i1
  ret i1 %tobool
}

; Function Attrs: mustprogress nounwind uwtable
define linkonce_odr noundef zeroext i1 @_ZNOSt8optionalIbE8value_orIbEEbOT_(ptr noundef nonnull align 1 dereferenceable(2) %this, ptr noundef nonnull align 1 dereferenceable(1) %__u) #4 comdat align 2 {
entry:
  %retval = alloca i1, align 1
  %this.addr = alloca ptr, align 8
  %__u.addr = alloca ptr, align 8
  store ptr %this, ptr %this.addr, align 8
  store ptr %__u, ptr %__u.addr, align 8
  %this1 = load ptr, ptr %this.addr, align 8
  %call = call noundef zeroext i1 @_ZNKSt19_Optional_base_implIbSt14_Optional_baseIbLb1ELb1EEE13_M_is_engagedEv(ptr noundef nonnull align 1 dereferenceable(1) %this1) #3
  br i1 %call, label %if.then, label %if.else

if.then:                                          ; preds = %entry
  %call2 = call noundef nonnull align 1 dereferenceable(1) ptr @_ZNSt19_Optional_base_implIbSt14_Optional_baseIbLb1ELb1EEE6_M_getEv(ptr noundef nonnull align 1 dereferenceable(1) %this1) #3
  %0 = load i8, ptr %call2, align 1
  %tobool = trunc i8 %0 to i1
  store i1 %tobool, ptr %retval, align 1
  br label %return

if.else:                                          ; preds = %entry
  %1 = load ptr, ptr %__u.addr, align 8
  %2 = load i8, ptr %1, align 1
  %tobool3 = trunc i8 %2 to i1
  store i1 %tobool3, ptr %retval, align 1
  br label %return

return:                                           ; preds = %if.else, %if.then
  %3 = load i1, ptr %retval, align 1
  ret i1 %3
}

; Function Attrs: mustprogress nounwind uwtable
define linkonce_odr void @_ZNSt17basic_string_viewIcSt11char_traitsIcEEC2EPKc(ptr noundef nonnull align 8 dereferenceable(16) %this, ptr noundef nonnull %__str) unnamed_addr #4 comdat align 2 personality ptr @__gxx_personality_v0 {
entry:
  %this.addr = alloca ptr, align 8
  %__str.addr = alloca ptr, align 8
  store ptr %this, ptr %this.addr, align 8
  store ptr %__str, ptr %__str.addr, align 8
  %this1 = load ptr, ptr %this.addr, align 8
  %_M_len = getelementptr inbounds %"class.std::basic_string_view", ptr %this1, i32 0, i32 0
  %0 = load ptr, ptr %__str.addr, align 8
  %call = invoke noundef i64 @_ZNSt11char_traitsIcE6lengthEPKc(ptr noundef %0)
          to label %invoke.cont unwind label %terminate.lpad

invoke.cont:                                      ; preds = %entry
  store i64 %call, ptr %_M_len, align 8
  %_M_str = getelementptr inbounds %"class.std::basic_string_view", ptr %this1, i32 0, i32 1
  %1 = load ptr, ptr %__str.addr, align 8
  store ptr %1, ptr %_M_str, align 8
  ret void

terminate.lpad:                                   ; preds = %entry
  %2 = landingpad { ptr, i32 }
          catch ptr null
  %3 = extractvalue { ptr, i32 } %2, 0
  call void @__clang_call_terminate(ptr %3) #15
  unreachable
}

; Function Attrs: mustprogress nounwind uwtable
define linkonce_odr noundef i32 @_ZNOSt8optionalI26grpc_compression_algorithmE8value_orIS0_EES0_OT_(ptr noundef nonnull align 4 dereferenceable(8) %this, ptr noundef nonnull align 4 dereferenceable(4) %__u) #4 comdat align 2 {
entry:
  %retval = alloca i32, align 4
  %this.addr = alloca ptr, align 8
  %__u.addr = alloca ptr, align 8
  store ptr %this, ptr %this.addr, align 8
  store ptr %__u, ptr %__u.addr, align 8
  %this1 = load ptr, ptr %this.addr, align 8
  %call = call noundef zeroext i1 @_ZNKSt19_Optional_base_implI26grpc_compression_algorithmSt14_Optional_baseIS0_Lb1ELb1EEE13_M_is_engagedEv(ptr noundef nonnull align 1 dereferenceable(1) %this1) #3
  br i1 %call, label %if.then, label %if.else

if.then:                                          ; preds = %entry
  %call2 = call noundef nonnull align 4 dereferenceable(4) ptr @_ZNSt19_Optional_base_implI26grpc_compression_algorithmSt14_Optional_baseIS0_Lb1ELb1EEE6_M_getEv(ptr noundef nonnull align 1 dereferenceable(1) %this1) #3
  %0 = load i32, ptr %call2, align 4
  store i32 %0, ptr %retval, align 4
  br label %return

if.else:                                          ; preds = %entry
  %1 = load ptr, ptr %__u.addr, align 8
  %2 = load i32, ptr %1, align 4
  store i32 %2, ptr %retval, align 4
  br label %return

return:                                           ; preds = %if.else, %if.then
  %3 = load i32, ptr %retval, align 4
  ret i32 %3
}

; Function Attrs: mustprogress uwtable
define void @_ZN9grpc_core18ChannelCompressionC2ERKNS_11ChannelArgsE(ptr noundef nonnull align 8 dereferenceable(23) %this, ptr noundef nonnull align 8 dereferenceable(8) %args) unnamed_addr #5 align 2 {
entry:
  %this.addr = alloca ptr, align 8
  %args.addr = alloca ptr, align 8
  %ref.tmp = alloca %"class.std::optional.10", align 4
  %ref.tmp7 = alloca i32, align 4
  %ref.tmp12 = alloca %"class.std::optional.18", align 1
  %agg.tmp = alloca %"class.std::basic_string_view", align 8
  %ref.tmp17 = alloca i8, align 1
  %ref.tmp19 = alloca %"class.std::optional.18", align 1
  %agg.tmp20 = alloca %"class.std::basic_string_view", align 8
  %ref.tmp25 = alloca i8, align 1
  %name = alloca ptr, align 8
  store ptr %this, ptr %this.addr, align 8
  store ptr %args, ptr %args.addr, align 8
  %this1 = load ptr, ptr %this.addr, align 8
  %max_recv_size_ = getelementptr inbounds %"class.grpc_core::ChannelCompression", ptr %this1, i32 0, i32 0
  %0 = load ptr, ptr %args.addr, align 8
  %call = call i64 @_ZN9grpc_core29GetMaxRecvSizeFromChannelArgsERKNS_11ChannelArgsE(ptr noundef nonnull align 8 dereferenceable(8) %0)
  %coerce.dive = getelementptr inbounds %"class.std::optional", ptr %max_recv_size_, i32 0, i32 0
  %coerce.dive2 = getelementptr inbounds %"struct.std::_Optional_base", ptr %coerce.dive, i32 0, i32 0
  store i64 %call, ptr %coerce.dive2, align 8
  %message_size_service_config_parser_index_ = getelementptr inbounds %"class.grpc_core::ChannelCompression", ptr %this1, i32 0, i32 1
  %call3 = call noundef i64 @_ZN9grpc_core17MessageSizeParser11ParserIndexEv()
  store i64 %call3, ptr %message_size_service_config_parser_index_, align 8
  %default_compression_algorithm_ = getelementptr inbounds %"class.grpc_core::ChannelCompression", ptr %this1, i32 0, i32 2
  %1 = load ptr, ptr %args.addr, align 8
  %call4 = call i64 @_ZN9grpc_core42DefaultCompressionAlgorithmFromChannelArgsERKNS_11ChannelArgsE(ptr noundef nonnull align 8 dereferenceable(8) %1)
  %coerce.dive5 = getelementptr inbounds %"class.std::optional.10", ptr %ref.tmp, i32 0, i32 0
  %coerce.dive6 = getelementptr inbounds %"struct.std::_Optional_base.11", ptr %coerce.dive5, i32 0, i32 0
  store i64 %call4, ptr %coerce.dive6, align 4
  store i32 0, ptr %ref.tmp7, align 4
  %call8 = call noundef i32 @_ZNOSt8optionalI26grpc_compression_algorithmE8value_orIS0_EES0_OT_(ptr noundef nonnull align 4 dereferenceable(8) %ref.tmp, ptr noundef nonnull align 4 dereferenceable(4) %ref.tmp7)
  store i32 %call8, ptr %default_compression_algorithm_, align 8
  %enabled_compression_algorithms_ = getelementptr inbounds %"class.grpc_core::ChannelCompression", ptr %this1, i32 0, i32 3
  %2 = load ptr, ptr %args.addr, align 8
  %call9 = call i8 @_ZN9grpc_core23CompressionAlgorithmSet15FromChannelArgsERKNS_11ChannelArgsE(ptr noundef nonnull align 8 dereferenceable(8) %2)
  %coerce.dive10 = getelementptr inbounds %"class.grpc_core::CompressionAlgorithmSet", ptr %enabled_compression_algorithms_, i32 0, i32 0
  %coerce.dive11 = getelementptr inbounds %"class.grpc_core::BitSet", ptr %coerce.dive10, i32 0, i32 0
  store i8 %call9, ptr %coerce.dive11, align 4
  %enable_compression_ = getelementptr inbounds %"class.grpc_core::ChannelCompression", ptr %this1, i32 0, i32 4
  %3 = load ptr, ptr %args.addr, align 8
  call void @_ZNSt17basic_string_viewIcSt11char_traitsIcEEC2EPKc(ptr noundef nonnull align 8 dereferenceable(16) %agg.tmp, ptr noundef @.str.3) #3
  %4 = getelementptr inbounds { i64, ptr }, ptr %agg.tmp, i32 0, i32 0
  %5 = load i64, ptr %4, align 8
  %6 = getelementptr inbounds { i64, ptr }, ptr %agg.tmp, i32 0, i32 1
  %7 = load ptr, ptr %6, align 8
  %call13 = call i16 @_ZNK9grpc_core11ChannelArgs7GetBoolESt17basic_string_viewIcSt11char_traitsIcEE(ptr noundef nonnull align 8 dereferenceable(8) %3, i64 %5, ptr %7)
  %coerce.dive14 = getelementptr inbounds %"class.std::optional.18", ptr %ref.tmp12, i32 0, i32 0
  %coerce.dive15 = getelementptr inbounds %"struct.std::_Optional_base.19", ptr %coerce.dive14, i32 0, i32 0
  %coerce.dive16 = getelementptr inbounds %"struct.std::_Optional_payload.21", ptr %coerce.dive15, i32 0, i32 0
  store i16 %call13, ptr %coerce.dive16, align 1
  store i8 1, ptr %ref.tmp17, align 1
  %call18 = call noundef zeroext i1 @_ZNOSt8optionalIbE8value_orIbEEbOT_(ptr noundef nonnull align 1 dereferenceable(2) %ref.tmp12, ptr noundef nonnull align 1 dereferenceable(1) %ref.tmp17)
  %frombool = zext i1 %call18 to i8
  store i8 %frombool, ptr %enable_compression_, align 1
  %enable_decompression_ = getelementptr inbounds %"class.grpc_core::ChannelCompression", ptr %this1, i32 0, i32 5
  %8 = load ptr, ptr %args.addr, align 8
  call void @_ZNSt17basic_string_viewIcSt11char_traitsIcEEC2EPKc(ptr noundef nonnull align 8 dereferenceable(16) %agg.tmp20, ptr noundef @.str.4) #3
  %9 = getelementptr inbounds { i64, ptr }, ptr %agg.tmp20, i32 0, i32 0
  %10 = load i64, ptr %9, align 8
  %11 = getelementptr inbounds { i64, ptr }, ptr %agg.tmp20, i32 0, i32 1
  %12 = load ptr, ptr %11, align 8
  %call21 = call i16 @_ZNK9grpc_core11ChannelArgs7GetBoolESt17basic_string_viewIcSt11char_traitsIcEE(ptr noundef nonnull align 8 dereferenceable(8) %8, i64 %10, ptr %12)
  %coerce.dive22 = getelementptr inbounds %"class.std::optional.18", ptr %ref.tmp19, i32 0, i32 0
  %coerce.dive23 = getelementptr inbounds %"struct.std::_Optional_base.19", ptr %coerce.dive22, i32 0, i32 0
  %coerce.dive24 = getelementptr inbounds %"struct.std::_Optional_payload.21", ptr %coerce.dive23, i32 0, i32 0
  store i16 %call21, ptr %coerce.dive24, align 1
  store i8 1, ptr %ref.tmp25, align 1
  %call26 = call noundef zeroext i1 @_ZNOSt8optionalIbE8value_orIbEEbOT_(ptr noundef nonnull align 1 dereferenceable(2) %ref.tmp19, ptr noundef nonnull align 1 dereferenceable(1) %ref.tmp25)
  %frombool27 = zext i1 %call26 to i8
  store i8 %frombool27, ptr %enable_decompression_, align 2
  %enabled_compression_algorithms_28 = getelementptr inbounds %"class.grpc_core::ChannelCompression", ptr %this1, i32 0, i32 3
  %default_compression_algorithm_29 = getelementptr inbounds %"class.grpc_core::ChannelCompression", ptr %this1, i32 0, i32 2
  %13 = load i32, ptr %default_compression_algorithm_29, align 8
  %call30 = call noundef zeroext i1 @_ZNK9grpc_core23CompressionAlgorithmSet5IsSetE26grpc_compression_algorithm(ptr noundef nonnull align 1 dereferenceable(1) %enabled_compression_algorithms_28, i32 noundef %13)
  br i1 %call30, label %if.end35, label %if.then

if.then:                                          ; preds = %entry
  %default_compression_algorithm_31 = getelementptr inbounds %"class.grpc_core::ChannelCompression", ptr %this1, i32 0, i32 2
  %14 = load i32, ptr %default_compression_algorithm_31, align 8
  %call32 = call i32 @grpc_compression_algorithm_name(i32 noundef %14, ptr noundef %name)
  %tobool = icmp ne i32 %call32, 0
  br i1 %tobool, label %if.end, label %if.then33

if.then33:                                        ; preds = %if.then
  store ptr @.str.5, ptr %name, align 8
  br label %if.end

if.end:                                           ; preds = %if.then33, %if.then
  %15 = load ptr, ptr %name, align 8
  call void (ptr, i32, i32, ptr, ...) @gpr_log(ptr noundef @.str.6, i32 noundef 106, i32 noundef 2, ptr noundef @.str.7, ptr noundef %15)
  %default_compression_algorithm_34 = getelementptr inbounds %"class.grpc_core::ChannelCompression", ptr %this1, i32 0, i32 2
  store i32 0, ptr %default_compression_algorithm_34, align 8
  br label %if.end35

if.end35:                                         ; preds = %if.end, %entry
  ret void
}