; Function Attrs: mustprogress uwtable
define void @_ZN9grpc_core18ChannelCompressionC2ERKNS_11ChannelArgsE(ptr noundef nonnull align 8 dereferenceable(23) %this, ptr noundef nonnull align 8 dereferenceable(8) %args) unnamed_addr #3 align 2 personality ptr @__gxx_personality_v0 {
entry:
  %name = alloca ptr, align 8
  %call = tail call i64 @_ZN9grpc_core29GetMaxRecvSizeFromChannelArgsERKNS_11ChannelArgsE(ptr noundef nonnull align 8 dereferenceable(8) %args)
  store i64 %call, ptr %this, align 8
  %message_size_service_config_parser_index_ = getelementptr inbounds i8, ptr %this, i64 8
  %call3 = tail call noundef i64 @_ZN9grpc_core17MessageSizeParser11ParserIndexEv()
  store i64 %call3, ptr %message_size_service_config_parser_index_, align 8
  %default_compression_algorithm_ = getelementptr inbounds i8, ptr %this, i64 16
  %call4 = tail call i64 @_ZN9grpc_core42DefaultCompressionAlgorithmFromChannelArgsERKNS_11ChannelArgsE(ptr noundef nonnull align 8 dereferenceable(8) %args)
  %ref.tmp.sroa.0.0.extract.trunc = trunc i64 %call4 to i32
  %0 = and i64 %call4, 4294967296
  %tobool.i.not.i = icmp eq i64 %0, 0
  %retval.0.i = select i1 %tobool.i.not.i, i32 0, i32 %ref.tmp.sroa.0.0.extract.trunc
  store i32 %retval.0.i, ptr %default_compression_algorithm_, align 8
  %enabled_compression_algorithms_ = getelementptr inbounds i8, ptr %this, i64 20
  %call9 = tail call i8 @_ZN9grpc_core23CompressionAlgorithmSet15FromChannelArgsERKNS_11ChannelArgsE(ptr noundef nonnull align 8 dereferenceable(8) %args)
  store i8 %call9, ptr %enabled_compression_algorithms_, align 4
  %enable_compression_ = getelementptr inbounds i8, ptr %this, i64 21
  %call13 = tail call i16 @_ZNK9grpc_core11ChannelArgs7GetBoolESt17basic_string_viewIcSt11char_traitsIcEE(ptr noundef nonnull align 8 dereferenceable(8) %args, i64 28, ptr nonnull @.str.3)
  %1 = and i16 %call13, 257
  %retval.0.i9 = icmp ne i16 %1, 256
  %frombool = zext i1 %retval.0.i9 to i8
  store i8 %frombool, ptr %enable_compression_, align 1
  %enable_decompression_ = getelementptr inbounds i8, ptr %this, i64 22
  %call21 = tail call i16 @_ZNK9grpc_core11ChannelArgs7GetBoolESt17basic_string_viewIcSt11char_traitsIcEE(ptr noundef nonnull align 8 dereferenceable(8) %args, i64 30, ptr nonnull @.str.4)
  %2 = and i16 %call21, 257
  %retval.0.i18 = icmp ne i16 %2, 256
  %frombool27 = zext i1 %retval.0.i18 to i8
  store i8 %frombool27, ptr %enable_decompression_, align 2
  %3 = load i32, ptr %default_compression_algorithm_, align 8
  %call30 = tail call noundef zeroext i1 @_ZNK9grpc_core23CompressionAlgorithmSet5IsSetE26grpc_compression_algorithm(ptr noundef nonnull align 1 dereferenceable(1) %enabled_compression_algorithms_, i32 noundef %3)
  br i1 %call30, label %if.end35, label %if.then

if.then:                                          ; preds = %entry
  %4 = load i32, ptr %default_compression_algorithm_, align 8
  %call32 = call i32 @grpc_compression_algorithm_name(i32 noundef %4, ptr noundef nonnull %name)
  %tobool.not = icmp eq i32 %call32, 0
  br i1 %tobool.not, label %if.then33, label %if.then.if.end_crit_edge

if.then.if.end_crit_edge:                         ; preds = %if.then
  %.pre = load ptr, ptr %name, align 8
  br label %if.end

if.then33:                                        ; preds = %if.then
  store ptr @.str.5, ptr %name, align 8
  br label %if.end

if.end:                                           ; preds = %if.then.if.end_crit_edge, %if.then33
  %5 = phi ptr [ %.pre, %if.then.if.end_crit_edge ], [ @.str.5, %if.then33 ]
  call void (ptr, i32, i32, ptr, ...) @gpr_log(ptr noundef nonnull @.str.6, i32 noundef 106, i32 noundef 2, ptr noundef nonnull @.str.7, ptr noundef %5)
  store i32 0, ptr %default_compression_algorithm_, align 8
  br label %if.end35

if.end35:                                         ; preds = %if.end, %entry
  ret void
}